; Function Attrs: nounwind uwtable
define noalias nonnull ptr @l_Lean_Elab_Tactic_BVDecide_Frontend_Normalize_Op_instToMessageData(ptr noundef %0) local_unnamed_addr #0 {
  %2 = tail call ptr @l_Lean_Elab_Tactic_BVDecide_Frontend_Normalize_Op_toExpr(ptr noundef %0)
  %3 = tail call ptr @l_Lean_MessageData_ofExpr(ptr noundef %2) #5
  %4 = load ptr, ptr @l_Lean_Elab_Tactic_BVDecide_Frontend_Normalize_Op_instToMessageData___closed__2, align 8, !tbaa !4
  tail call void @lean_inc_heartbeat() #5
  %5 = tail call noalias ptr @mi_malloc_small(i64 noundef 24) #5
  %6 = icmp eq ptr %5, null
  br i1 %6, label %7, label %lean_alloc_ctor.exit

7:                                                ; preds = %1
  tail call void @lean_internal_panic_out_of_memory() #6
  unreachable

lean_alloc_ctor.exit:                             ; preds = %1
  %8 = getelementptr inbounds nuw i8, ptr %5, i64 4
  store i32 1, ptr %5, align 4, !tbaa !8
  store i32 117571608, ptr %8, align 4
  %9 = getelementptr inbounds nuw i8, ptr %5, i64 8
  store ptr %4, ptr %9, align 8, !tbaa !4
  %10 = getelementptr inbounds nuw i8, ptr %5, i64 16
  store ptr %3, ptr %10, align 8, !tbaa !4
  tail call void @lean_inc_heartbeat() #5
  %11 = tail call noalias ptr @mi_malloc_small(i64 noundef 24) #5
  %12 = icmp eq ptr %11, null
  br i1 %12, label %13, label %lean_alloc_ctor.exit11

13:                                               ; preds = %lean_alloc_ctor.exit
  tail call void @lean_internal_panic_out_of_memory() #6
  unreachable

lean_alloc_ctor.exit11:                           ; preds = %lean_alloc_ctor.exit
  %14 = getelementptr inbounds nuw i8, ptr %11, i64 4
  store i32 1, ptr %11, align 4, !tbaa !8
  store i32 117571608, ptr %14, align 4
  %15 = getelementptr inbounds nuw i8, ptr %11, i64 8
  store ptr %5, ptr %15, align 8, !tbaa !4
  %16 = getelementptr inbounds nuw i8, ptr %11, i64 16
  store ptr %4, ptr %16, align 8, !tbaa !4
  ret ptr %11
}